target datalayout = "e-m:e-p270:32:32-p271:32:32-p272:64:64-i64:64-i128:128-f80:128-n8:16:32:64-S128"
target triple = "x86_64-pc-linux-gnu"

%struct.__mpz_struct = type { i32, i32, ptr }
%struct.RBignum = type { %struct.RBasic, %union.anon.12 }
%struct.RBasic = type { i64, i64 }
%union.anon.12 = type { %struct.anon.13, [8 x i8] }
%struct.anon.13 = type { i64, ptr }

; Function Attrs: inlinehint nounwind sspstrong willreturn memory(read) uwtable
define internal i64 @RB_FL_TEST_RAW(i64 noundef %0, i64 noundef %1) #5 {
  %3 = alloca i64, align 8
  %4 = alloca i64, align 8
  store i64 %0, ptr %3, align 8, !tbaa !7
  store i64 %1, ptr %4, align 8, !tbaa !7
  %5 = load i64, ptr %3, align 8, !tbaa !7
  %6 = inttoptr i64 %5 to ptr
  %7 = getelementptr inbounds nuw %struct.RBasic, ptr %6, i32 0, i32 0
  %8 = load i64, ptr %7, align 8, !tbaa !12
  %9 = load i64, ptr %4, align 8, !tbaa !7
  %10 = and i64 %8, %9
  ret i64 %10
}

; Function Attrs: inlinehint nounwind sspstrong uwtable
define internal zeroext i1 @BIGNUM_EMBED_P(i64 noundef %0) #3 {
  %2 = alloca i64, align 8
  store i64 %0, ptr %2, align 8, !tbaa !7
  %3 = load i64, ptr %2, align 8, !tbaa !7
  %4 = call i64 @RB_FL_TEST_RAW(i64 noundef %3, i64 noundef 16384) #22
  %5 = icmp ne i64 %4, 0
  ret i1 %5
}

; Function Attrs: inlinehint nounwind sspstrong uwtable
define internal ptr @BIGNUM_DIGITS(i64 noundef %0) #3 {
  %2 = alloca ptr, align 8
  %3 = alloca i64, align 8
  store i64 %0, ptr %3, align 8, !tbaa !7
  %4 = load i64, ptr %3, align 8, !tbaa !7
  %5 = call zeroext i1 @BIGNUM_EMBED_P(i64 noundef %4)
  br i1 %5, label %6, label %11

6:                                                ; preds = %1
  %7 = load i64, ptr %3, align 8, !tbaa !7
  %8 = inttoptr i64 %7 to ptr
  %9 = getelementptr inbounds nuw %struct.RBignum, ptr %8, i32 0, i32 1
  %10 = getelementptr inbounds [6 x i32], ptr %9, i64 0, i64 0
  store ptr %10, ptr %2, align 8
  br label %17

11:                                               ; preds = %1
  %12 = load i64, ptr %3, align 8, !tbaa !7
  %13 = inttoptr i64 %12 to ptr
  %14 = getelementptr inbounds nuw %struct.RBignum, ptr %13, i32 0, i32 1
  %15 = getelementptr inbounds nuw %struct.anon.13, ptr %14, i32 0, i32 1
  %16 = load ptr, ptr %15, align 8, !tbaa !11
  store ptr %16, ptr %2, align 8
  br label %17

17:                                               ; preds = %11, %6
  %18 = load ptr, ptr %2, align 8
  ret ptr %18
}

; Function Attrs: inlinehint nounwind sspstrong uwtable
define internal i64 @BIGNUM_LEN(i64 noundef %0) #3 {
  %2 = alloca i64, align 8
  %3 = alloca i64, align 8
  %4 = alloca i64, align 8
  store i64 %0, ptr %3, align 8, !tbaa !7
  %5 = load i64, ptr %3, align 8, !tbaa !7
  %6 = call zeroext i1 @BIGNUM_EMBED_P(i64 noundef %5)
  br i1 %6, label %13, label %7

7:                                                ; preds = %1
  %8 = load i64, ptr %3, align 8, !tbaa !7
  %9 = inttoptr i64 %8 to ptr
  %10 = getelementptr inbounds nuw %struct.RBignum, ptr %9, i32 0, i32 1
  %11 = getelementptr inbounds nuw %struct.anon.13, ptr %10, i32 0, i32 0
  %12 = load i64, ptr %11, align 8, !tbaa !11
  store i64 %12, ptr %2, align 8
  br label %23

13:                                               ; preds = %1
  call void @llvm.lifetime.start.p0(i64 8, ptr %4) #21
  %14 = load i64, ptr %3, align 8, !tbaa !7
  %15 = inttoptr i64 %14 to ptr
  %16 = getelementptr inbounds nuw %struct.RBasic, ptr %15, i32 0, i32 0
  %17 = load i64, ptr %16, align 8, !tbaa !12
  store i64 %17, ptr %4, align 8, !tbaa !7
  %18 = load i64, ptr %4, align 8, !tbaa !7
  %19 = and i64 %18, 229376
  store i64 %19, ptr %4, align 8, !tbaa !7
  %20 = load i64, ptr %4, align 8, !tbaa !7
  %21 = lshr i64 %20, 15
  store i64 %21, ptr %4, align 8, !tbaa !7
  %22 = load i64, ptr %4, align 8, !tbaa !7
  store i64 %22, ptr %2, align 8
  call void @llvm.lifetime.end.p0(i64 8, ptr %4) #21
  br label %23

23:                                               ; preds = %13, %7
  %24 = load i64, ptr %2, align 8
  ret i64 %24
}

; Function Attrs: nounwind sspstrong uwtable
define dso_local i64 @rb_gcd_gmp(i64 noundef %0, i64 noundef %1) #0 {
  %3 = alloca i64, align 8
  %4 = alloca i64, align 8
  %5 = alloca i64, align 8
  %6 = alloca [1 x %struct.__mpz_struct], align 16
  %7 = alloca [1 x %struct.__mpz_struct], align 16
  %8 = alloca [1 x %struct.__mpz_struct], align 16
  %9 = alloca i64, align 8
  %10 = alloca i64, align 8
  %11 = alloca i64, align 8
  store i64 %0, ptr %3, align 8, !tbaa !7
  store i64 %1, ptr %4, align 8, !tbaa !7
  call void @llvm.lifetime.start.p0(i64 8, ptr %5) #21
  store i64 0, ptr %5, align 8, !tbaa !7
  call void @llvm.lifetime.start.p0(i64 16, ptr %6) #21
  call void @llvm.lifetime.start.p0(i64 16, ptr %7) #21
  call void @llvm.lifetime.start.p0(i64 16, ptr %8) #21
  call void @llvm.lifetime.start.p0(i64 8, ptr %9) #21
  call void @llvm.lifetime.start.p0(i64 8, ptr %10) #21
  call void @llvm.lifetime.start.p0(i64 8, ptr %11) #21
  %12 = getelementptr inbounds [1 x %struct.__mpz_struct], ptr %6, i64 0, i64 0
  call void @__gmpz_init(ptr noundef %12)
  %13 = getelementptr inbounds [1 x %struct.__mpz_struct], ptr %7, i64 0, i64 0
  call void @__gmpz_init(ptr noundef %13)
  %14 = getelementptr inbounds [1 x %struct.__mpz_struct], ptr %8, i64 0, i64 0
  call void @__gmpz_init(ptr noundef %14)
  %15 = getelementptr inbounds [1 x %struct.__mpz_struct], ptr %6, i64 0, i64 0
  %16 = load i64, ptr %3, align 8, !tbaa !7
  %17 = call i64 @BIGNUM_LEN(i64 noundef %16)
  %18 = load i64, ptr %3, align 8, !tbaa !7
  %19 = call ptr @BIGNUM_DIGITS(i64 noundef %18)
  call void @__gmpz_import(ptr noundef %15, i64 noundef %17, i32 noundef -1, i64 noundef 4, i32 noundef 0, i64 noundef 0, ptr noundef %19)
  %20 = getelementptr inbounds [1 x %struct.__mpz_struct], ptr %7, i64 0, i64 0
  %21 = load i64, ptr %4, align 8, !tbaa !7
  %22 = call i64 @BIGNUM_LEN(i64 noundef %21)
  %23 = load i64, ptr %4, align 8, !tbaa !7
  %24 = call ptr @BIGNUM_DIGITS(i64 noundef %23)
  call void @__gmpz_import(ptr noundef %20, i64 noundef %22, i32 noundef -1, i64 noundef 4, i32 noundef 0, i64 noundef 0, ptr noundef %24)
  %25 = getelementptr inbounds [1 x %struct.__mpz_struct], ptr %8, i64 0, i64 0
  %26 = getelementptr inbounds [1 x %struct.__mpz_struct], ptr %6, i64 0, i64 0
  %27 = getelementptr inbounds [1 x %struct.__mpz_struct], ptr %7, i64 0, i64 0
  call void @__gmpz_gcd(ptr noundef %25, ptr noundef %26, ptr noundef %27)
  %28 = getelementptr inbounds [1 x %struct.__mpz_struct], ptr %6, i64 0, i64 0
  call void @__gmpz_clear(ptr noundef %28)
  %29 = getelementptr inbounds [1 x %struct.__mpz_struct], ptr %7, i64 0, i64 0
  call void @__gmpz_clear(ptr noundef %29)
  %30 = getelementptr inbounds [1 x %struct.__mpz_struct], ptr %8, i64 0, i64 0
  %31 = call i64 @__gmpz_sizeinbase(ptr noundef %30, i32 noundef 16) #22
  %32 = add i64 %31, 8
  %33 = sub i64 %32, 1
  %34 = udiv i64 %33, 8
  store i64 %34, ptr %11, align 8, !tbaa !7
  %35 = load i64, ptr %11, align 8, !tbaa !7
  %36 = call i64 @rb_big_new(i64 noundef %35, i32 noundef 1)
  store i64 %36, ptr %10, align 8, !tbaa !7
  %37 = load i64, ptr %10, align 8, !tbaa !7
  %38 = call ptr @BIGNUM_DIGITS(i64 noundef %37)
  %39 = getelementptr inbounds [1 x %struct.__mpz_struct], ptr %8, i64 0, i64 0
  %40 = call ptr @__gmpz_export(ptr noundef %38, ptr noundef %9, i32 noundef -1, i64 noundef 4, i32 noundef 0, i64 noundef 0, ptr noundef %39)
  %41 = getelementptr inbounds [1 x %struct.__mpz_struct], ptr %8, i64 0, i64 0
  call void @__gmpz_clear(ptr noundef %41)
  %42 = load i64, ptr %10, align 8, !tbaa !7
  %43 = call i64 @rb_big_norm(i64 noundef %42)
  call void @llvm.lifetime.end.p0(i64 8, ptr %11) #21
  call void @llvm.lifetime.end.p0(i64 8, ptr %10) #21
  call void @llvm.lifetime.end.p0(i64 8, ptr %9) #21
  call void @llvm.lifetime.end.p0(i64 16, ptr %8) #21
  call void @llvm.lifetime.end.p0(i64 16, ptr %7) #21
  call void @llvm.lifetime.end.p0(i64 16, ptr %6) #21
  call void @llvm.lifetime.end.p0(i64 8, ptr %5) #21
  ret i64 %43
}