; Function Attrs: nounwind sspstrong uwtable
define dso_local i64 @rb_gcd_gmp(i64 noundef %0, i64 noundef %1) local_unnamed_addr #0 {
  %3 = alloca [1 x %struct.__mpz_struct], align 16
  %4 = alloca [1 x %struct.__mpz_struct], align 16
  %5 = alloca [1 x %struct.__mpz_struct], align 16
  %6 = alloca i64, align 8
  call void @llvm.lifetime.start.p0(i64 16, ptr nonnull %3) #17
  call void @llvm.lifetime.start.p0(i64 16, ptr nonnull %4) #17
  call void @llvm.lifetime.start.p0(i64 16, ptr nonnull %5) #17
  call void @llvm.lifetime.start.p0(i64 8, ptr nonnull %6) #17
  call void @__gmpz_init(ptr noundef nonnull %3) #17
  call void @__gmpz_init(ptr noundef nonnull %4) #17
  call void @__gmpz_init(ptr noundef nonnull %5) #17
  %7 = inttoptr i64 %0 to ptr
  %8 = load i64, ptr %7, align 8, !tbaa !7
  %9 = and i64 %8, 16384
  %.not.i = icmp eq i64 %9, 0
  br i1 %.not.i, label %14, label %10

10:                                               ; preds = %2
  %11 = lshr i64 %8, 15
  %12 = and i64 %11, 7
  %13 = getelementptr inbounds nuw i8, ptr %7, i64 16
  br label %BIGNUM_DIGITS.exit

14:                                               ; preds = %2
  %15 = getelementptr inbounds nuw i8, ptr %7, i64 16
  %16 = load i64, ptr %15, align 8, !tbaa !12
  %17 = getelementptr inbounds nuw i8, ptr %7, i64 24
  %18 = load ptr, ptr %17, align 8, !tbaa !12
  br label %BIGNUM_DIGITS.exit

BIGNUM_DIGITS.exit:                               ; preds = %10, %14
  %.0.i19 = phi i64 [ %12, %10 ], [ %16, %14 ]
  %.0.i8 = phi ptr [ %13, %10 ], [ %18, %14 ]
  call void @__gmpz_import(ptr noundef nonnull %3, i64 noundef %.0.i19, i32 noundef -1, i64 noundef 4, i32 noundef 0, i64 noundef 0, ptr noundef %.0.i8) #17
  %19 = inttoptr i64 %1 to ptr
  %20 = load i64, ptr %19, align 8, !tbaa !7
  %21 = and i64 %20, 16384
  %.not.i9 = icmp eq i64 %21, 0
  br i1 %.not.i9, label %26, label %22

22:                                               ; preds = %BIGNUM_DIGITS.exit
  %23 = lshr i64 %20, 15
  %24 = and i64 %23, 7
  %25 = getelementptr inbounds nuw i8, ptr %19, i64 16
  br label %BIGNUM_DIGITS.exit14

26:                                               ; preds = %BIGNUM_DIGITS.exit
  %27 = getelementptr inbounds nuw i8, ptr %19, i64 16
  %28 = load i64, ptr %27, align 8, !tbaa !12
  %29 = getelementptr inbounds nuw i8, ptr %19, i64 24
  %30 = load ptr, ptr %29, align 8, !tbaa !12
  br label %BIGNUM_DIGITS.exit14

BIGNUM_DIGITS.exit14:                             ; preds = %22, %26
  %.0.i1022 = phi i64 [ %24, %22 ], [ %28, %26 ]
  %.0.i13 = phi ptr [ %25, %22 ], [ %30, %26 ]
  call void @__gmpz_import(ptr noundef nonnull %4, i64 noundef %.0.i1022, i32 noundef -1, i64 noundef 4, i32 noundef 0, i64 noundef 0, ptr noundef %.0.i13) #17
  call void @__gmpz_gcd(ptr noundef nonnull %5, ptr noundef nonnull %3, ptr noundef nonnull %4) #17
  call void @__gmpz_clear(ptr noundef nonnull %3) #17
  call void @__gmpz_clear(ptr noundef nonnull %4) #17
  %31 = call i64 @__gmpz_sizeinbase(ptr noundef nonnull %5, i32 noundef 16) #18
  %32 = add i64 %31, 7
  %33 = lshr i64 %32, 3
  %34 = call i64 @rb_big_new(i64 noundef %33, i32 noundef 1) #17
  %35 = inttoptr i64 %34 to ptr
  %36 = load i64, ptr %35, align 8, !tbaa !7
  %37 = and i64 %36, 16384
  %.not.i15 = icmp eq i64 %37, 0
  br i1 %.not.i15, label %40, label %38

38:                                               ; preds = %BIGNUM_DIGITS.exit14
  %39 = getelementptr inbounds nuw i8, ptr %35, i64 16
  br label %BIGNUM_DIGITS.exit17

40:                                               ; preds = %BIGNUM_DIGITS.exit14
  %41 = getelementptr inbounds nuw i8, ptr %35, i64 24
  %42 = load ptr, ptr %41, align 8, !tbaa !12
  br label %BIGNUM_DIGITS.exit17

BIGNUM_DIGITS.exit17:                             ; preds = %38, %40
  %.0.i16 = phi ptr [ %39, %38 ], [ %42, %40 ]
  %43 = call ptr @__gmpz_export(ptr noundef %.0.i16, ptr noundef nonnull %6, i32 noundef -1, i64 noundef 4, i32 noundef 0, i64 noundef 0, ptr noundef nonnull %5) #17
  call void @__gmpz_clear(ptr noundef nonnull %5) #17
  %44 = call i64 @rb_big_norm(i64 noundef %34) #17
  call void @llvm.lifetime.end.p0(i64 8, ptr nonnull %6) #17
  call void @llvm.lifetime.end.p0(i64 16, ptr nonnull %5) #17
  call void @llvm.lifetime.end.p0(i64 16, ptr nonnull %4) #17
  call void @llvm.lifetime.end.p0(i64 16, ptr nonnull %3) #17
  ret i64 %44
}